target datalayout = "e-m:e-p270:32:32-p271:32:32-p272:64:64-i64:64-i128:128-f80:128-n8:16:32:64-S128"
target triple = "x86_64-pc-linux-gnu"

%struct.RelOptInfo = type { i32, i32, ptr, double, i8, i8, i8, ptr, ptr, ptr, ptr, ptr, ptr, ptr, ptr, ptr, ptr, i32, i32, i32, i16, i16, ptr, ptr, ptr, ptr, ptr, ptr, ptr, ptr, i32, double, double, ptr, ptr, ptr, i32, i32, i32, i32, i8, ptr, ptr, ptr, ptr, ptr, %struct.QualCost, i32, ptr, i8, i8, ptr, ptr, ptr, ptr, i32, ptr, i8, ptr, ptr, ptr, ptr, ptr, ptr }
%struct.QualCost = type { double, double }
%struct.PartitionMap = type { i32, ptr, ptr, i8, ptr }

; Function Attrs: nounwind uwtable
define internal void @generate_matching_part_pairs(ptr noundef %0, ptr noundef %1, ptr noundef %2, ptr noundef %3, i32 noundef %4, ptr noundef %5, ptr noundef %6) #0 {
  %8 = alloca ptr, align 8
  %9 = alloca ptr, align 8
  %10 = alloca ptr, align 8
  %11 = alloca ptr, align 8
  %12 = alloca i32, align 4
  %13 = alloca ptr, align 8
  %14 = alloca ptr, align 8
  %15 = alloca i32, align 4
  %16 = alloca i32, align 4
  %17 = alloca ptr, align 8
  %18 = alloca ptr, align 8
  %19 = alloca i32, align 4
  %20 = alloca i32, align 4
  %21 = alloca i32, align 4
  %22 = alloca i32, align 4
  %23 = alloca i32, align 4
  %24 = alloca i32, align 4
  %25 = alloca i32, align 4
  store ptr %0, ptr %8, align 8
  store ptr %1, ptr %9, align 8
  store ptr %2, ptr %10, align 8
  store ptr %3, ptr %11, align 8
  store i32 %4, ptr %12, align 4
  store ptr %5, ptr %13, align 8
  store ptr %6, ptr %14, align 8
  call void @llvm.lifetime.start.p0(i64 4, ptr %15) #9
  %26 = load ptr, ptr %10, align 8
  %27 = getelementptr inbounds nuw %struct.PartitionMap, ptr %26, i32 0, i32 0
  %28 = load i32, ptr %27, align 8
  store i32 %28, ptr %15, align 4
  call void @llvm.lifetime.start.p0(i64 4, ptr %16) #9
  %29 = load ptr, ptr %11, align 8
  %30 = getelementptr inbounds nuw %struct.PartitionMap, ptr %29, i32 0, i32 0
  %31 = load i32, ptr %30, align 8
  store i32 %31, ptr %16, align 4
  call void @llvm.lifetime.start.p0(i64 8, ptr %17) #9
  call void @llvm.lifetime.start.p0(i64 8, ptr %18) #9
  call void @llvm.lifetime.start.p0(i64 4, ptr %19) #9
  call void @llvm.lifetime.start.p0(i64 4, ptr %20) #9
  %32 = load i32, ptr %12, align 4
  %33 = sext i32 %32 to i64
  %34 = mul i64 4, %33
  %35 = call ptr @palloc(i64 noundef %34)
  store ptr %35, ptr %17, align 8
  %36 = load i32, ptr %12, align 4
  %37 = sext i32 %36 to i64
  %38 = mul i64 4, %37
  %39 = call ptr @palloc(i64 noundef %38)
  store ptr %39, ptr %18, align 8
  store i32 0, ptr %20, align 4
  br label %40

40:                                               ; preds = %53, %7
  %41 = load i32, ptr %20, align 4
  %42 = load i32, ptr %12, align 4
  %43 = icmp slt i32 %41, %42
  br i1 %43, label %44, label %56

44:                                               ; preds = %40
  %45 = load ptr, ptr %18, align 8
  %46 = load i32, ptr %20, align 4
  %47 = sext i32 %46 to i64
  %48 = getelementptr inbounds i32, ptr %45, i64 %47
  store i32 -1, ptr %48, align 4
  %49 = load ptr, ptr %17, align 8
  %50 = load i32, ptr %20, align 4
  %51 = sext i32 %50 to i64
  %52 = getelementptr inbounds i32, ptr %49, i64 %51
  store i32 -1, ptr %52, align 4
  br label %53

53:                                               ; preds = %44
  %54 = load i32, ptr %20, align 4
  %55 = add i32 %54, 1
  store i32 %55, ptr %20, align 4
  br label %40, !llvm.loop !59

56:                                               ; preds = %40
  %57 = load i32, ptr %15, align 4
  %58 = load i32, ptr %16, align 4
  %59 = icmp sgt i32 %57, %58
  br i1 %59, label %60, label %62

60:                                               ; preds = %56
  %61 = load i32, ptr %15, align 4
  br label %64

62:                                               ; preds = %56
  %63 = load i32, ptr %16, align 4
  br label %64

64:                                               ; preds = %62, %60
  %65 = phi i32 [ %61, %60 ], [ %63, %62 ]
  store i32 %65, ptr %19, align 4
  store i32 0, ptr %20, align 4
  br label %66

66:                                               ; preds = %113, %64
  %67 = load i32, ptr %20, align 4
  %68 = load i32, ptr %19, align 4
  %69 = icmp slt i32 %67, %68
  br i1 %69, label %70, label %116

70:                                               ; preds = %66
  %71 = load i32, ptr %20, align 4
  %72 = load i32, ptr %15, align 4
  %73 = icmp slt i32 %71, %72
  br i1 %73, label %74, label %91

74:                                               ; preds = %70
  call void @llvm.lifetime.start.p0(i64 4, ptr %21) #9
  %75 = load ptr, ptr %10, align 8
  %76 = getelementptr inbounds nuw %struct.PartitionMap, ptr %75, i32 0, i32 1
  %77 = load ptr, ptr %76, align 8
  %78 = load i32, ptr %20, align 4
  %79 = sext i32 %78 to i64
  %80 = getelementptr inbounds i32, ptr %77, i64 %79
  %81 = load i32, ptr %80, align 4
  store i32 %81, ptr %21, align 4
  %82 = load i32, ptr %21, align 4
  %83 = icmp sge i32 %82, 0
  br i1 %83, label %84, label %90

84:                                               ; preds = %74
  %85 = load i32, ptr %20, align 4
  %86 = load ptr, ptr %17, align 8
  %87 = load i32, ptr %21, align 4
  %88 = sext i32 %87 to i64
  %89 = getelementptr inbounds i32, ptr %86, i64 %88
  store i32 %85, ptr %89, align 4
  br label %90

90:                                               ; preds = %84, %74
  call void @llvm.lifetime.end.p0(i64 4, ptr %21) #9
  br label %91

91:                                               ; preds = %90, %70
  %92 = load i32, ptr %20, align 4
  %93 = load i32, ptr %16, align 4
  %94 = icmp slt i32 %92, %93
  br i1 %94, label %95, label %112

95:                                               ; preds = %91
  call void @llvm.lifetime.start.p0(i64 4, ptr %22) #9
  %96 = load ptr, ptr %11, align 8
  %97 = getelementptr inbounds nuw %struct.PartitionMap, ptr %96, i32 0, i32 1
  %98 = load ptr, ptr %97, align 8
  %99 = load i32, ptr %20, align 4
  %100 = sext i32 %99 to i64
  %101 = getelementptr inbounds i32, ptr %98, i64 %100
  %102 = load i32, ptr %101, align 4
  store i32 %102, ptr %22, align 4
  %103 = load i32, ptr %22, align 4
  %104 = icmp sge i32 %103, 0
  br i1 %104, label %105, label %111

105:                                              ; preds = %95
  %106 = load i32, ptr %20, align 4
  %107 = load ptr, ptr %18, align 8
  %108 = load i32, ptr %22, align 4
  %109 = sext i32 %108 to i64
  %110 = getelementptr inbounds i32, ptr %107, i64 %109
  store i32 %106, ptr %110, align 4
  br label %111

111:                                              ; preds = %105, %95
  call void @llvm.lifetime.end.p0(i64 4, ptr %22) #9
  br label %112

112:                                              ; preds = %111, %91
  br label %113

113:                                              ; preds = %112
  %114 = load i32, ptr %20, align 4
  %115 = add i32 %114, 1
  store i32 %115, ptr %20, align 4
  br label %66, !llvm.loop !60

116:                                              ; preds = %66
  store i32 0, ptr %20, align 4
  br label %117

117:                                              ; preds = %176, %116
  %118 = load i32, ptr %20, align 4
  %119 = load i32, ptr %12, align 4
  %120 = icmp slt i32 %118, %119
  br i1 %120, label %121, label %179

121:                                              ; preds = %117
  call void @llvm.lifetime.start.p0(i64 4, ptr %23) #9
  %122 = load ptr, ptr %17, align 8
  %123 = load i32, ptr %20, align 4
  %124 = sext i32 %123 to i64
  %125 = getelementptr inbounds i32, ptr %122, i64 %124
  %126 = load i32, ptr %125, align 4
  store i32 %126, ptr %23, align 4
  call void @llvm.lifetime.start.p0(i64 4, ptr %24) #9
  %127 = load ptr, ptr %18, align 8
  %128 = load i32, ptr %20, align 4
  %129 = sext i32 %128 to i64
  %130 = getelementptr inbounds i32, ptr %127, i64 %129
  %131 = load i32, ptr %130, align 4
  store i32 %131, ptr %24, align 4
  %132 = load i32, ptr %23, align 4
  %133 = icmp eq i32 %132, -1
  br i1 %133, label %134, label %138

134:                                              ; preds = %121
  %135 = load i32, ptr %24, align 4
  %136 = icmp eq i32 %135, -1
  br i1 %136, label %137, label %138

137:                                              ; preds = %134
  store i32 10, ptr %25, align 4
  br label %173

138:                                              ; preds = %134, %121
  %139 = load ptr, ptr %13, align 8
  %140 = load ptr, ptr %139, align 8
  %141 = load i32, ptr %23, align 4
  %142 = icmp sge i32 %141, 0
  br i1 %142, label %143, label %151

143:                                              ; preds = %138
  %144 = load ptr, ptr %8, align 8
  %145 = getelementptr inbounds nuw %struct.RelOptInfo, ptr %144, i32 0, i32 59
  %146 = load ptr, ptr %145, align 8
  %147 = load i32, ptr %23, align 4
  %148 = sext i32 %147 to i64
  %149 = getelementptr inbounds ptr, ptr %146, i64 %148
  %150 = load ptr, ptr %149, align 8
  br label %152

151:                                              ; preds = %138
  br label %152

152:                                              ; preds = %151, %143
  %153 = phi ptr [ %150, %143 ], [ null, %151 ]
  %154 = call ptr @lappend(ptr noundef %140, ptr noundef %153)
  %155 = load ptr, ptr %13, align 8
  store ptr %154, ptr %155, align 8
  %156 = load ptr, ptr %14, align 8
  %157 = load ptr, ptr %156, align 8
  %158 = load i32, ptr %24, align 4
  %159 = icmp sge i32 %158, 0
  br i1 %159, label %160, label %168

160:                                              ; preds = %152
  %161 = load ptr, ptr %9, align 8
  %162 = getelementptr inbounds nuw %struct.RelOptInfo, ptr %161, i32 0, i32 59
  %163 = load ptr, ptr %162, align 8
  %164 = load i32, ptr %24, align 4
  %165 = sext i32 %164 to i64
  %166 = getelementptr inbounds ptr, ptr %163, i64 %165
  %167 = load ptr, ptr %166, align 8
  br label %169

168:                                              ; preds = %152
  br label %169

169:                                              ; preds = %168, %160
  %170 = phi ptr [ %167, %160 ], [ null, %168 ]
  %171 = call ptr @lappend(ptr noundef %157, ptr noundef %170)
  %172 = load ptr, ptr %14, align 8
  store ptr %171, ptr %172, align 8
  store i32 0, ptr %25, align 4
  br label %173

173:                                              ; preds = %169, %137
  call void @llvm.lifetime.end.p0(i64 4, ptr %24) #9
  call void @llvm.lifetime.end.p0(i64 4, ptr %23) #9
  %174 = load i32, ptr %25, align 4
  switch i32 %174, label %182 [
    i32 0, label %175
    i32 10, label %176
  ]

175:                                              ; preds = %173
  br label %176

176:                                              ; preds = %175, %173
  %177 = load i32, ptr %20, align 4
  %178 = add i32 %177, 1
  store i32 %178, ptr %20, align 4
  br label %117, !llvm.loop !61

179:                                              ; preds = %117
  %180 = load ptr, ptr %17, align 8
  call void @pfree(ptr noundef %180)
  %181 = load ptr, ptr %18, align 8
  call void @pfree(ptr noundef %181)
  call void @llvm.lifetime.end.p0(i64 4, ptr %20) #9
  call void @llvm.lifetime.end.p0(i64 4, ptr %19) #9
  call void @llvm.lifetime.end.p0(i64 8, ptr %18) #9
  call void @llvm.lifetime.end.p0(i64 8, ptr %17) #9
  call void @llvm.lifetime.end.p0(i64 4, ptr %16) #9
  call void @llvm.lifetime.end.p0(i64 4, ptr %15) #9
  ret void

182:                                              ; preds = %173
  unreachable
}