; Function Attrs: nounwind uwtable
define internal fastcc void @generate_matching_part_pairs(ptr noundef readonly captures(none) %0, ptr noundef readonly captures(none) %1, ptr noundef nonnull readonly captures(none) %2, ptr noundef nonnull readonly captures(none) %3, i32 noundef %4, ptr noundef captures(none) %5, ptr noundef captures(none) %6) unnamed_addr #0 {
  %8 = load i32, ptr %2, align 8
  %9 = load i32, ptr %3, align 8
  %10 = sext i32 %4 to i64
  %11 = shl nsw i64 %10, 2
  %12 = tail call ptr @palloc(i64 noundef %11) #12
  %13 = tail call ptr @palloc(i64 noundef %11) #12
  %14 = icmp sgt i32 %4, 0
  br i1 %14, label %.lr.ph.preheader, label %._crit_edge

.lr.ph.preheader:                                 ; preds = %7
  %wide.trip.count = zext nneg i32 %4 to i64
  br label %.lr.ph

.lr.ph:                                           ; preds = %.lr.ph.preheader, %.lr.ph
  %indvars.iv = phi i64 [ 0, %.lr.ph.preheader ], [ %indvars.iv.next, %.lr.ph ]
  %15 = getelementptr inbounds nuw i32, ptr %13, i64 %indvars.iv
  store i32 -1, ptr %15, align 4
  %16 = getelementptr inbounds nuw i32, ptr %12, i64 %indvars.iv
  store i32 -1, ptr %16, align 4
  %indvars.iv.next = add nuw nsw i64 %indvars.iv, 1
  %exitcond.not = icmp eq i64 %indvars.iv.next, %wide.trip.count
  br i1 %exitcond.not, label %._crit_edge, label %.lr.ph, !llvm.loop !54

._crit_edge:                                      ; preds = %.lr.ph, %7
  %17 = tail call i32 @llvm.smax.i32(i32 %8, i32 %9)
  %18 = icmp sgt i32 %17, 0
  br i1 %18, label %.lr.ph63, label %.preheader

.lr.ph63:                                         ; preds = %._crit_edge
  %19 = getelementptr inbounds nuw i8, ptr %2, i64 8
  %20 = getelementptr inbounds nuw i8, ptr %3, i64 8
  %21 = sext i32 %8 to i64
  %22 = sext i32 %9 to i64
  %wide.trip.count71 = zext nneg i32 %17 to i64
  br label %25

.preheader:                                       ; preds = %47, %._crit_edge
  br i1 %14, label %.lr.ph65, label %._crit_edge66

.lr.ph65:                                         ; preds = %.preheader
  %23 = getelementptr inbounds nuw i8, ptr %0, i64 408
  %24 = getelementptr inbounds nuw i8, ptr %1, i64 408
  %wide.trip.count76 = zext nneg i32 %4 to i64
  br label %48

25:                                               ; preds = %.lr.ph63, %47
  %indvars.iv68 = phi i64 [ 0, %.lr.ph63 ], [ %indvars.iv.next69, %47 ]
  %26 = icmp slt i64 %indvars.iv68, %21
  br i1 %26, label %27, label %36

27:                                               ; preds = %25
  %28 = load ptr, ptr %19, align 8
  %29 = getelementptr inbounds nuw i32, ptr %28, i64 %indvars.iv68
  %30 = load i32, ptr %29, align 4
  %31 = icmp sgt i32 %30, -1
  br i1 %31, label %32, label %36

32:                                               ; preds = %27
  %33 = zext nneg i32 %30 to i64
  %34 = getelementptr inbounds nuw i32, ptr %12, i64 %33
  %35 = trunc nuw nsw i64 %indvars.iv68 to i32
  store i32 %35, ptr %34, align 4
  br label %36

36:                                               ; preds = %27, %32, %25
  %37 = icmp slt i64 %indvars.iv68, %22
  br i1 %37, label %38, label %47

38:                                               ; preds = %36
  %39 = load ptr, ptr %20, align 8
  %40 = getelementptr inbounds nuw i32, ptr %39, i64 %indvars.iv68
  %41 = load i32, ptr %40, align 4
  %42 = icmp sgt i32 %41, -1
  br i1 %42, label %43, label %47

43:                                               ; preds = %38
  %44 = zext nneg i32 %41 to i64
  %45 = getelementptr inbounds nuw i32, ptr %13, i64 %44
  %46 = trunc nuw nsw i64 %indvars.iv68 to i32
  store i32 %46, ptr %45, align 4
  br label %47

47:                                               ; preds = %38, %43, %36
  %indvars.iv.next69 = add nuw nsw i64 %indvars.iv68, 1
  %exitcond72.not = icmp eq i64 %indvars.iv.next69, %wide.trip.count71
  br i1 %exitcond72.not, label %.preheader, label %25, !llvm.loop !55

48:                                               ; preds = %.lr.ph65, %76
  %indvars.iv73 = phi i64 [ 0, %.lr.ph65 ], [ %indvars.iv.next74, %76 ]
  %49 = getelementptr inbounds nuw i32, ptr %12, i64 %indvars.iv73
  %50 = load i32, ptr %49, align 4
  %51 = getelementptr inbounds nuw i32, ptr %13, i64 %indvars.iv73
  %52 = load i32, ptr %51, align 4
  %53 = icmp eq i32 %50, -1
  %54 = icmp eq i32 %52, -1
  %or.cond = select i1 %53, i1 %54, i1 false
  br i1 %or.cond, label %76, label %55

55:                                               ; preds = %48
  %56 = load ptr, ptr %5, align 8
  %57 = icmp sgt i32 %50, -1
  br i1 %57, label %58, label %63

58:                                               ; preds = %55
  %59 = load ptr, ptr %23, align 8
  %60 = zext nneg i32 %50 to i64
  %61 = getelementptr inbounds nuw ptr, ptr %59, i64 %60
  %62 = load ptr, ptr %61, align 8
  br label %63

63:                                               ; preds = %55, %58
  %64 = phi ptr [ %62, %58 ], [ null, %55 ]
  %65 = tail call ptr @lappend(ptr noundef %56, ptr noundef %64) #12
  store ptr %65, ptr %5, align 8
  %66 = load ptr, ptr %6, align 8
  %67 = icmp sgt i32 %52, -1
  br i1 %67, label %68, label %73

68:                                               ; preds = %63
  %69 = load ptr, ptr %24, align 8
  %70 = zext nneg i32 %52 to i64
  %71 = getelementptr inbounds nuw ptr, ptr %69, i64 %70
  %72 = load ptr, ptr %71, align 8
  br label %73

73:                                               ; preds = %63, %68
  %74 = phi ptr [ %72, %68 ], [ null, %63 ]
  %75 = tail call ptr @lappend(ptr noundef %66, ptr noundef %74) #12
  store ptr %75, ptr %6, align 8
  br label %76

76:                                               ; preds = %48, %73
  %indvars.iv.next74 = add nuw nsw i64 %indvars.iv73, 1
  %exitcond77.not = icmp eq i64 %indvars.iv.next74, %wide.trip.count76
  br i1 %exitcond77.not, label %._crit_edge66, label %48, !llvm.loop !56

._crit_edge66:                                    ; preds = %76, %.preheader
  tail call void @pfree(ptr noundef %12) #12
  tail call void @pfree(ptr noundef %13) #12
  ret void
}